target datalayout = "e-m:e-p270:32:32-p271:32:32-p272:64:64-i64:64-i128:128-f80:128-n8:16:32:64-S128"
target triple = "x86_64-pc-linux-gnu"

%"class.std::__cxx11::basic_string" = type { %"struct.std::__cxx11::basic_string<char>::_Alloc_hider", i64, %union.anon }
%"struct.std::__cxx11::basic_string<char>::_Alloc_hider" = type { ptr }
%union.anon = type { i64, [8 x i8] }
%"class.std::vector" = type { %"struct.std::_Vector_base" }
%"struct.std::_Vector_base" = type { %"struct.std::_Vector_base<std::__cxx11::basic_string<char>, std::allocator<std::__cxx11::basic_string<char>>>::_Vector_impl" }
%"struct.std::_Vector_base<std::__cxx11::basic_string<char>, std::allocator<std::__cxx11::basic_string<char>>>::_Vector_impl" = type { %"struct.std::_Vector_base<std::__cxx11::basic_string<char>, std::allocator<std::__cxx11::basic_string<char>>>::_Vector_impl_data" }
%"struct.std::_Vector_base<std::__cxx11::basic_string<char>, std::allocator<std::__cxx11::basic_string<char>>>::_Vector_impl_data" = type { ptr, ptr, ptr }
%class.cmCPackGenerator = type { ptr, i32, %"class.std::__cxx11::basic_string", %"class.std::__cxx11::basic_string", %"class.std::vector", %"class.std::__cxx11::basic_string", %"class.std::vector", %"class.std::vector.3", %"class.std::map", %"class.std::map.11", %"class.std::map.16", i32, ptr, i8, i8, ptr }
%"class.std::vector.3" = type { %"struct.std::_Vector_base.4" }
%"struct.std::_Vector_base.4" = type { %"struct.std::_Vector_base<cmCPackInstallCMakeProject, std::allocator<cmCPackInstallCMakeProject>>::_Vector_impl" }
%"struct.std::_Vector_base<cmCPackInstallCMakeProject, std::allocator<cmCPackInstallCMakeProject>>::_Vector_impl" = type { %"struct.std::_Vector_base<cmCPackInstallCMakeProject, std::allocator<cmCPackInstallCMakeProject>>::_Vector_impl_data" }
%"struct.std::_Vector_base<cmCPackInstallCMakeProject, std::allocator<cmCPackInstallCMakeProject>>::_Vector_impl_data" = type { ptr, ptr, ptr }
%"class.std::map" = type { %"class.std::_Rb_tree" }
%"class.std::_Rb_tree" = type { %"struct.std::_Rb_tree<std::__cxx11::basic_string<char>, std::pair<const std::__cxx11::basic_string<char>, cmCPackInstallationType>, std::_Select1st<std::pair<const std::__cxx11::basic_string<char>, cmCPackInstallationType>>, std::less<std::__cxx11::basic_string<char>>>::_Rb_tree_impl" }
%"struct.std::_Rb_tree<std::__cxx11::basic_string<char>, std::pair<const std::__cxx11::basic_string<char>, cmCPackInstallationType>, std::_Select1st<std::pair<const std::__cxx11::basic_string<char>, cmCPackInstallationType>>, std::less<std::__cxx11::basic_string<char>>>::_Rb_tree_impl" = type { %"struct.std::_Rb_tree_key_compare", %"struct.std::_Rb_tree_header" }
%"struct.std::_Rb_tree_key_compare" = type { %"struct.std::less" }
%"struct.std::less" = type { i8 }
%"struct.std::_Rb_tree_header" = type { %"struct.std::_Rb_tree_node_base", i64 }
%"struct.std::_Rb_tree_node_base" = type { i32, ptr, ptr, ptr }
%"class.std::map.11" = type { %"class.std::_Rb_tree.12" }
%"class.std::_Rb_tree.12" = type { %"struct.std::_Rb_tree<std::__cxx11::basic_string<char>, std::pair<const std::__cxx11::basic_string<char>, cmCPackComponent>, std::_Select1st<std::pair<const std::__cxx11::basic_string<char>, cmCPackComponent>>, std::less<std::__cxx11::basic_string<char>>>::_Rb_tree_impl" }
%"struct.std::_Rb_tree<std::__cxx11::basic_string<char>, std::pair<const std::__cxx11::basic_string<char>, cmCPackComponent>, std::_Select1st<std::pair<const std::__cxx11::basic_string<char>, cmCPackComponent>>, std::less<std::__cxx11::basic_string<char>>>::_Rb_tree_impl" = type { %"struct.std::_Rb_tree_key_compare", %"struct.std::_Rb_tree_header" }
%"class.std::map.16" = type { %"class.std::_Rb_tree.17" }
%"class.std::_Rb_tree.17" = type { %"struct.std::_Rb_tree<std::__cxx11::basic_string<char>, std::pair<const std::__cxx11::basic_string<char>, cmCPackComponentGroup>, std::_Select1st<std::pair<const std::__cxx11::basic_string<char>, cmCPackComponentGroup>>, std::less<std::__cxx11::basic_string<char>>>::_Rb_tree_impl" }
%"struct.std::_Rb_tree<std::__cxx11::basic_string<char>, std::pair<const std::__cxx11::basic_string<char>, cmCPackComponentGroup>, std::_Select1st<std::pair<const std::__cxx11::basic_string<char>, cmCPackComponentGroup>>, std::less<std::__cxx11::basic_string<char>>>::_Rb_tree_impl" = type { %"struct.std::_Rb_tree_key_compare", %"struct.std::_Rb_tree_header" }
%class.cmValue = type { ptr }
%"class.std::__cxx11::basic_ostringstream" = type { %"class.std::basic_ostream.base", %"class.std::__cxx11::basic_stringbuf", %"class.std::basic_ios" }
%"class.std::basic_ostream.base" = type { ptr }
%"class.std::__cxx11::basic_stringbuf" = type { %"class.std::basic_streambuf", i32, %"class.std::__cxx11::basic_string" }
%"class.std::basic_streambuf" = type { ptr, ptr, ptr, ptr, ptr, ptr, ptr, %"class.std::locale" }
%"class.std::locale" = type { ptr }
%"class.std::basic_ios" = type { %"class.std::ios_base", ptr, i8, i8, ptr, ptr, ptr, ptr }
%"class.std::ios_base" = type { ptr, i64, i64, i32, i32, i32, ptr, %"struct.std::ios_base::_Words", [8 x %"struct.std::ios_base::_Words"], i32, ptr, %"class.std::locale" }
%"struct.std::ios_base::_Words" = type { ptr, i64 }

@.str.2 = private unnamed_addr constant [132 x i8] c"generated/home/dtcxzyw/WorkSpace/Projects/compilers/llvm-opt-benchmark/bench/cmake/CMake/Source/CPack/cmCPackInnoSetupGenerator.cxx\00", align 1
@.str.202 = private unnamed_addr constant [19 x i8] c"Required variable \00", align 1
@.str.203 = private unnamed_addr constant [9 x i8] c" not set\00", align 1

; Function Attrs: mustprogress uwtable
define linkonce_odr dso_local void @_ZN10cmCPackLog3LogEiPKciS1_(ptr noundef nonnull align 8 dereferenceable(232) %0, i32 noundef %1, ptr noundef %2, i32 noundef %3, ptr noundef %4) #4 comdat align 2 {
  %6 = alloca ptr, align 8
  %7 = alloca i32, align 4
  %8 = alloca ptr, align 8
  %9 = alloca i32, align 4
  %10 = alloca ptr, align 8
  store ptr %0, ptr %6, align 8
  store i32 %1, ptr %7, align 4
  store ptr %2, ptr %8, align 8
  store i32 %3, ptr %9, align 4
  store ptr %4, ptr %10, align 8
  %11 = load ptr, ptr %6, align 8
  %12 = load i32, ptr %7, align 4
  %13 = load ptr, ptr %8, align 8
  %14 = load i32, ptr %9, align 4
  %15 = load ptr, ptr %10, align 8
  %16 = load ptr, ptr %10, align 8
  %17 = call i64 @strlen(ptr noundef %16) #17
  call void @_ZN10cmCPackLog3LogEiPKciS1_m(ptr noundef nonnull align 8 dereferenceable(232) %11, i32 noundef %12, ptr noundef %13, i32 noundef %14, ptr noundef %15, i64 noundef %17)
  ret void
}

; Function Attrs: mustprogress nounwind uwtable
define linkonce_odr dso_local noundef zeroext i1 @_ZNK7cmValuecvbEv(ptr noundef nonnull align 8 dereferenceable(8) %0) #5 comdat align 2 {
  %2 = alloca ptr, align 8
  store ptr %0, ptr %2, align 8
  %3 = load ptr, ptr %2, align 8
  %4 = getelementptr inbounds %class.cmValue, ptr %3, i32 0, i32 0
  %5 = load ptr, ptr %4, align 8
  %6 = icmp ne ptr %5, null
  ret i1 %6
}

; Function Attrs: mustprogress uwtable
define dso_local ptr @_ZN25cmCPackInnoSetupGenerator13RequireOptionERKNSt7__cxx1112basic_stringIcSt11char_traitsIcESaIcEEE(ptr noundef nonnull align 8 dereferenceable(656) %0, ptr noundef nonnull align 8 dereferenceable(32) %1) #4 align 2 personality ptr @__gxx_personality_v0 {
  %3 = alloca %class.cmValue, align 8
  %4 = alloca ptr, align 8
  %5 = alloca ptr, align 8
  %6 = alloca %"class.std::__cxx11::basic_ostringstream", align 8
  %7 = alloca ptr, align 8
  %8 = alloca i32, align 4
  %9 = alloca %"class.std::__cxx11::basic_string", align 8
  store ptr %0, ptr %4, align 8
  store ptr %1, ptr %5, align 8
  %10 = load ptr, ptr %4, align 8
  %11 = load ptr, ptr %5, align 8
  %12 = call ptr @_ZNK16cmCPackGenerator9GetOptionERKNSt7__cxx1112basic_stringIcSt11char_traitsIcESaIcEEE(ptr noundef nonnull align 8 dereferenceable(360) %10, ptr noundef nonnull align 8 dereferenceable(32) %11)
  %13 = getelementptr inbounds %class.cmValue, ptr %3, i32 0, i32 0
  store ptr %12, ptr %13, align 8
  %14 = call noundef zeroext i1 @_ZNK7cmValuecvbEv(ptr noundef nonnull align 8 dereferenceable(8) %3) #3
  br i1 %14, label %41, label %15

15:                                               ; preds = %2
  br label %16

16:                                               ; preds = %15
  call void @_ZNSt7__cxx1119basic_ostringstreamIcSt11char_traitsIcESaIcEEC1Ev(ptr noundef nonnull align 8 dereferenceable(112) %6)
  %17 = invoke noundef nonnull align 8 dereferenceable(8) ptr @_ZStlsISt11char_traitsIcEERSt13basic_ostreamIcT_ES5_PKc(ptr noundef nonnull align 8 dereferenceable(8) %6, ptr noundef @.str.202)
          to label %18 unwind label %32

18:                                               ; preds = %16
  %19 = load ptr, ptr %5, align 8
  %20 = invoke noundef nonnull align 8 dereferenceable(8) ptr @_ZStlsIcSt11char_traitsIcESaIcEERSt13basic_ostreamIT_T0_ES7_RKNSt7__cxx1112basic_stringIS4_S5_T1_EE(ptr noundef nonnull align 8 dereferenceable(8) %17, ptr noundef nonnull align 8 dereferenceable(32) %19)
          to label %21 unwind label %32

21:                                               ; preds = %18
  %22 = invoke noundef nonnull align 8 dereferenceable(8) ptr @_ZStlsISt11char_traitsIcEERSt13basic_ostreamIcT_ES5_PKc(ptr noundef nonnull align 8 dereferenceable(8) %20, ptr noundef @.str.203)
          to label %23 unwind label %32

23:                                               ; preds = %21
  %24 = invoke noundef nonnull align 8 dereferenceable(8) ptr @_ZNSolsEPFRSoS_E(ptr noundef nonnull align 8 dereferenceable(8) %22, ptr noundef @_ZSt4endlIcSt11char_traitsIcEERSt13basic_ostreamIT_T0_ES6_)
          to label %25 unwind label %32

25:                                               ; preds = %23
  %26 = getelementptr inbounds %class.cmCPackGenerator, ptr %10, i32 0, i32 12
  %27 = load ptr, ptr %26, align 8
  invoke void @_ZNKSt7__cxx1119basic_ostringstreamIcSt11char_traitsIcESaIcEE3strEv(ptr dead_on_unwind writable sret(%"class.std::__cxx11::basic_string") align 8 %9, ptr noundef nonnull align 8 dereferenceable(112) %6)
          to label %28 unwind label %32

28:                                               ; preds = %25
  %29 = call noundef ptr @_ZNKSt7__cxx1112basic_stringIcSt11char_traitsIcESaIcEE5c_strEv(ptr noundef nonnull align 8 dereferenceable(32) %9) #3
  invoke void @_ZN10cmCPackLog3LogEiPKciS1_(ptr noundef nonnull align 8 dereferenceable(232) %27, i32 noundef 16, ptr noundef @.str.2, i32 noundef 1012, ptr noundef %29)
          to label %30 unwind label %36

30:                                               ; preds = %28
  call void @_ZNSt7__cxx1112basic_stringIcSt11char_traitsIcESaIcEED1Ev(ptr noundef nonnull align 8 dereferenceable(32) %9) #3
  call void @_ZNSt7__cxx1119basic_ostringstreamIcSt11char_traitsIcESaIcEED1Ev(ptr noundef nonnull align 8 dereferenceable(112) %6) #3
  br label %31

31:                                               ; preds = %30
  br label %41

32:                                               ; preds = %25, %23, %21, %18, %16
  %33 = landingpad { ptr, i32 }
          cleanup
  %34 = extractvalue { ptr, i32 } %33, 0
  store ptr %34, ptr %7, align 8
  %35 = extractvalue { ptr, i32 } %33, 1
  store i32 %35, ptr %8, align 4
  br label %40

36:                                               ; preds = %28
  %37 = landingpad { ptr, i32 }
          cleanup
  %38 = extractvalue { ptr, i32 } %37, 0
  store ptr %38, ptr %7, align 8
  %39 = extractvalue { ptr, i32 } %37, 1
  store i32 %39, ptr %8, align 4
  call void @_ZNSt7__cxx1112basic_stringIcSt11char_traitsIcESaIcEED1Ev(ptr noundef nonnull align 8 dereferenceable(32) %9) #3
  br label %40

40:                                               ; preds = %36, %32
  call void @_ZNSt7__cxx1119basic_ostringstreamIcSt11char_traitsIcESaIcEED1Ev(ptr noundef nonnull align 8 dereferenceable(112) %6) #3
  br label %44

41:                                               ; preds = %31, %2
  %42 = getelementptr inbounds %class.cmValue, ptr %3, i32 0, i32 0
  %43 = load ptr, ptr %42, align 8
  ret ptr %43

44:                                               ; preds = %40
  %45 = load ptr, ptr %7, align 8
  %46 = load i32, ptr %8, align 4
  %47 = insertvalue { ptr, i32 } poison, ptr %45, 0
  %48 = insertvalue { ptr, i32 } %47, i32 %46, 1
  resume { ptr, i32 } %48
}